; ModuleID = 'source-C-CXX/59/563.c'
source_filename = "source-C-CXX/59/563.c"
target datalayout = "e-m:e-p270:32:32-p271:32:32-p272:64:64-i64:64-f80:128-n8:16:32:64-S128"
target triple = "x86_64-pc-linux-gnu"

@.str = private unnamed_addr constant [3 x i8] c"%d\00", align 1
@.str.1 = private unnamed_addr constant [6 x i8] c"empty\00", align 1
@.str.2 = private unnamed_addr constant [4 x i8] c"3 5\00", align 1
@.str.3 = private unnamed_addr constant [7 x i8] c"\0A%d %d\00", align 1

; Function Attrs: nofree nounwind sspstrong uwtable
define dso_local i32 @prime(i32 %0) local_unnamed_addr #0 {
  %2 = sitofp i32 %0 to double
  %3 = tail call double @sqrt(double %2) #4
  %4 = fcmp ult double %3, 2.000000e+00
  %5 = and i32 %0, 1
  %6 = icmp eq i32 %5, 0
  %7 = select i1 %4, i1 true, i1 %6
  br i1 %7, label %17, label %8

8:                                                ; preds = %1, %13
  %9 = phi i32 [ %16, %13 ], [ 3, %1 ]
  %10 = sitofp i32 %9 to double
  %11 = tail call double @sqrt(double %2) #4
  %12 = fcmp ult double %11, %10
  br i1 %12, label %17, label %13, !llvm.loop !5

13:                                               ; preds = %8
  %14 = srem i32 %0, %9
  %15 = icmp eq i32 %14, 0
  %16 = add nuw nsw i32 %9, 1
  br i1 %15, label %17, label %8, !llvm.loop !5

17:                                               ; preds = %13, %8, %1
  %18 = phi double [ 2.000000e+00, %1 ], [ %10, %8 ], [ %10, %13 ]
  %19 = tail call double @sqrt(double %2) #4
  %20 = fcmp olt double %19, %18
  %21 = zext i1 %20 to i32
  ret i32 %21
}

; Function Attrs: argmemonly mustprogress nofree nosync nounwind willreturn
declare void @llvm.lifetime.start.p0i8(i64 immarg, i8* nocapture) #1

; Function Attrs: mustprogress nofree nounwind willreturn
declare double @sqrt(double) local_unnamed_addr #2

; Function Attrs: argmemonly mustprogress nofree nosync nounwind willreturn
declare void @llvm.lifetime.end.p0i8(i64 immarg, i8* nocapture) #1

; Function Attrs: nofree nounwind sspstrong uwtable
define dso_local i32 @main() local_unnamed_addr #0 {
  %1 = alloca i32, align 4
  %2 = bitcast i32* %1 to i8*
  call void @llvm.lifetime.start.p0i8(i64 4, i8* nonnull %2) #4
  %3 = call i32 (i8*, ...) @__isoc99_scanf(i8* getelementptr inbounds ([3 x i8], [3 x i8]* @.str, i64 0, i64 0), i32* nonnull %1)
  %4 = load i32, i32* %1, align 4, !tbaa !7
  %5 = icmp slt i32 %4, 5
  %6 = select i1 %5, i8* getelementptr inbounds ([6 x i8], [6 x i8]* @.str.1, i64 0, i64 0), i8* getelementptr inbounds ([4 x i8], [4 x i8]* @.str.2, i64 0, i64 0)
  %7 = call i32 (i8*, ...) @printf(i8* nonnull dereferenceable(1) %6)
  %8 = load i32, i32* %1, align 4, !tbaa !7
  %9 = icmp slt i32 %8, 7
  br i1 %9, label %52, label %10

10:                                               ; preds = %0, %48
  %11 = phi i32 [ %49, %48 ], [ 7, %0 ]
  %12 = phi i32 [ %11, %48 ], [ 5, %0 ]
  %13 = sitofp i32 %12 to double
  %14 = call double @sqrt(double %13) #4
  %15 = fcmp ult double %14, 2.000000e+00
  br i1 %15, label %25, label %16

16:                                               ; preds = %10, %21
  %17 = phi i32 [ %24, %21 ], [ 3, %10 ]
  %18 = sitofp i32 %17 to double
  %19 = call double @sqrt(double %13) #4
  %20 = fcmp ult double %19, %18
  br i1 %20, label %25, label %21, !llvm.loop !5

21:                                               ; preds = %16
  %22 = urem i32 %12, %17
  %23 = icmp eq i32 %22, 0
  %24 = add nuw nsw i32 %17, 1
  br i1 %23, label %25, label %16, !llvm.loop !5

25:                                               ; preds = %21, %16, %10
  %26 = phi double [ 2.000000e+00, %10 ], [ %18, %16 ], [ %18, %21 ]
  %27 = call double @sqrt(double %13) #4
  %28 = fcmp olt double %27, %26
  %29 = sitofp i32 %11 to double
  %30 = call double @sqrt(double %29) #4
  %31 = fcmp ult double %30, 2.000000e+00
  br i1 %31, label %41, label %32

32:                                               ; preds = %25, %37
  %33 = phi i32 [ %40, %37 ], [ 3, %25 ]
  %34 = sitofp i32 %33 to double
  %35 = call double @sqrt(double %29) #4
  %36 = fcmp ult double %35, %34
  br i1 %36, label %41, label %37, !llvm.loop !5

37:                                               ; preds = %32
  %38 = urem i32 %11, %33
  %39 = icmp eq i32 %38, 0
  %40 = add nuw nsw i32 %33, 1
  br i1 %39, label %41, label %32, !llvm.loop !5

41:                                               ; preds = %37, %32, %25
  %42 = phi double [ 2.000000e+00, %25 ], [ %34, %32 ], [ %34, %37 ]
  %43 = call double @sqrt(double %29) #4
  %44 = fcmp olt double %43, %42
  %45 = and i1 %28, %44
  br i1 %45, label %46, label %48

46:                                               ; preds = %41
  %47 = call i32 (i8*, ...) @printf(i8* nonnull dereferenceable(1) getelementptr inbounds ([7 x i8], [7 x i8]* @.str.3, i64 0, i64 0), i32 %12, i32 %11)
  br label %48

48:                                               ; preds = %41, %46
  %49 = add nuw nsw i32 %11, 2
  %50 = load i32, i32* %1, align 4, !tbaa !7
  %51 = icmp sgt i32 %49, %50
  br i1 %51, label %52, label %10, !llvm.loop !11

52:                                               ; preds = %48, %0
  call void @llvm.lifetime.end.p0i8(i64 4, i8* nonnull %2) #4
  ret i32 0
}

; Function Attrs: nofree nounwind
declare noundef i32 @__isoc99_scanf(i8* nocapture noundef readonly, ...) local_unnamed_addr #3

; Function Attrs: nofree nounwind
declare noundef i32 @printf(i8* nocapture noundef readonly, ...) local_unnamed_addr #3


!llvm.module.flags = !{!0, !1, !2, !3}
!llvm.ident = !{!4}

!0 = !{i32 1, !"wchar_size", i32 4}
!1 = !{i32 7, !"PIC Level", i32 2}
!2 = !{i32 7, !"PIE Level", i32 2}
!3 = !{i32 7, !"uwtable", i32 1}
!4 = !{!"clang version 13.0.0"}
!5 = distinct !{!5, !6}
!6 = !{!"llvm.loop.mustprogress"}
!7 = !{!8, !8, i64 0}
!8 = !{!"int", !9, i64 0}
!9 = !{!"omnipotent char", !10, i64 0}
!10 = !{!"Simple C/C++ TBAA"}
!11 = distinct !{!11, !6}
